target datalayout = "e-m:e-p270:32:32-p271:32:32-p272:64:64-i64:64-i128:128-f80:128-n8:16:32:64-S128"
target triple = "x86_64-unknown-linux-gnu"

%"class.sat::clause_allocator" = type { %class.sat_allocator, %class.id_gen }
%class.sat_allocator = type { ptr, i64, %class.ptr_vector, ptr, [65 x %class.ptr_vector.1] }
%class.ptr_vector = type { %class.vector.0 }
%class.vector.0 = type { ptr }
%class.ptr_vector.1 = type { %class.vector.2 }
%class.vector.2 = type { ptr }
%class.id_gen = type { i32, %class.svector.3 }
%class.svector.3 = type { %class.vector.4 }
%class.vector.4 = type { ptr }

; Function Attrs: mustprogress nounwind uwtable
define linkonce_odr hidden noundef i32 @_ZNK6vectorIPN13sat_allocator5chunkELb0EjE4sizeEv(ptr noundef nonnull align 8 dereferenceable(8) %this) #4 comdat align 2 {
entry:
  %retval = alloca i32, align 4
  %this.addr = alloca ptr, align 8
  store ptr %this, ptr %this.addr, align 8
  %this1 = load ptr, ptr %this.addr, align 8
  %m_data = getelementptr inbounds %class.vector.0, ptr %this1, i32 0, i32 0
  %0 = load ptr, ptr %m_data, align 8
  %cmp = icmp eq ptr %0, null
  br i1 %cmp, label %if.then, label %if.end

if.then:                                          ; preds = %entry
  store i32 0, ptr %retval, align 4
  br label %return

if.end:                                           ; preds = %entry
  %m_data2 = getelementptr inbounds %class.vector.0, ptr %this1, i32 0, i32 0
  %1 = load ptr, ptr %m_data2, align 8
  %arrayidx = getelementptr inbounds i32, ptr %1, i64 -1
  %2 = load i32, ptr %arrayidx, align 4
  store i32 %2, ptr %retval, align 4
  br label %return

return:                                           ; preds = %if.end, %if.then
  %3 = load i32, ptr %retval, align 4
  ret i32 %3
}

; Function Attrs: mustprogress nounwind uwtable
define linkonce_odr hidden void @_ZN6vectorIPvLb0EjE5resetEv(ptr noundef nonnull align 8 dereferenceable(8) %this) #4 comdat align 2 {
entry:
  %this.addr = alloca ptr, align 8
  store ptr %this, ptr %this.addr, align 8
  %this1 = load ptr, ptr %this.addr, align 8
  %m_data = getelementptr inbounds %class.vector.2, ptr %this1, i32 0, i32 0
  %0 = load ptr, ptr %m_data, align 8
  %tobool = icmp ne ptr %0, null
  br i1 %tobool, label %if.then, label %if.end

if.then:                                          ; preds = %entry
  %m_data2 = getelementptr inbounds %class.vector.2, ptr %this1, i32 0, i32 0
  %1 = load ptr, ptr %m_data2, align 8
  %arrayidx = getelementptr inbounds i32, ptr %1, i64 -1
  store i32 0, ptr %arrayidx, align 4
  br label %if.end

if.end:                                           ; preds = %if.then, %entry
  ret void
}

; Function Attrs: mustprogress nounwind uwtable
define linkonce_odr hidden void @_ZN6vectorIPN13sat_allocator5chunkELb0EjE5resetEv(ptr noundef nonnull align 8 dereferenceable(8) %this) #4 comdat align 2 {
entry:
  %this.addr = alloca ptr, align 8
  store ptr %this, ptr %this.addr, align 8
  %this1 = load ptr, ptr %this.addr, align 8
  %m_data = getelementptr inbounds %class.vector.0, ptr %this1, i32 0, i32 0
  %0 = load ptr, ptr %m_data, align 8
  %tobool = icmp ne ptr %0, null
  br i1 %tobool, label %if.then, label %if.end

if.then:                                          ; preds = %entry
  %m_data2 = getelementptr inbounds %class.vector.0, ptr %this1, i32 0, i32 0
  %1 = load ptr, ptr %m_data2, align 8
  %arrayidx = getelementptr inbounds i32, ptr %1, i64 -1
  store i32 0, ptr %arrayidx, align 4
  br label %if.end

if.end:                                           ; preds = %if.then, %entry
  ret void
}

; Function Attrs: mustprogress uwtable
define linkonce_odr hidden void @_Z7deallocIN13sat_allocator5chunkEEvPT_(ptr noundef %ptr) #5 comdat {
entry:
  %ptr.addr = alloca ptr, align 8
  store ptr %ptr, ptr %ptr.addr, align 8
  %0 = load ptr, ptr %ptr.addr, align 8
  %cmp = icmp eq ptr %0, null
  br i1 %cmp, label %if.then, label %if.end

if.then:                                          ; preds = %entry
  br label %return

if.end:                                           ; preds = %entry
  %1 = load ptr, ptr %ptr.addr, align 8
  call void @_ZN6memory10deallocateEPv(ptr noundef %1)
  br label %return

return:                                           ; preds = %if.end, %if.then
  ret void
}

; Function Attrs: mustprogress uwtable
define linkonce_odr hidden noundef ptr @_ZN6vectorIPN13sat_allocator5chunkELb0EjE3endEv(ptr noundef nonnull align 8 dereferenceable(8) %this) #5 comdat align 2 {
entry:
  %this.addr = alloca ptr, align 8
  store ptr %this, ptr %this.addr, align 8
  %this1 = load ptr, ptr %this.addr, align 8
  %m_data = getelementptr inbounds %class.vector.0, ptr %this1, i32 0, i32 0
  %0 = load ptr, ptr %m_data, align 8
  %call = call noundef i32 @_ZNK6vectorIPN13sat_allocator5chunkELb0EjE4sizeEv(ptr noundef nonnull align 8 dereferenceable(8) %this1)
  %idx.ext = zext i32 %call to i64
  %add.ptr = getelementptr inbounds ptr, ptr %0, i64 %idx.ext
  ret ptr %add.ptr
}

; Function Attrs: mustprogress nounwind uwtable
define linkonce_odr hidden noundef ptr @_ZN6vectorIPN13sat_allocator5chunkELb0EjE5beginEv(ptr noundef nonnull align 8 dereferenceable(8) %this) #4 comdat align 2 {
entry:
  %this.addr = alloca ptr, align 8
  store ptr %this, ptr %this.addr, align 8
  %this1 = load ptr, ptr %this.addr, align 8
  %m_data = getelementptr inbounds %class.vector.0, ptr %this1, i32 0, i32 0
  %0 = load ptr, ptr %m_data, align 8
  ret ptr %0
}

; Function Attrs: mustprogress uwtable
define linkonce_odr hidden void @_ZN13sat_allocator5resetEv(ptr noundef nonnull align 8 dereferenceable(552) %this) #5 comdat align 2 {
entry:
  %this.addr = alloca ptr, align 8
  %__range1 = alloca ptr, align 8
  %__begin1 = alloca ptr, align 8
  %__end1 = alloca ptr, align 8
  %ch = alloca ptr, align 8
  %i = alloca i32, align 4
  store ptr %this, ptr %this.addr, align 8
  %this1 = load ptr, ptr %this.addr, align 8
  %m_chunks = getelementptr inbounds %class.sat_allocator, ptr %this1, i32 0, i32 2
  store ptr %m_chunks, ptr %__range1, align 8
  %0 = load ptr, ptr %__range1, align 8
  %call = call noundef ptr @_ZN6vectorIPN13sat_allocator5chunkELb0EjE5beginEv(ptr noundef nonnull align 8 dereferenceable(8) %0)
  store ptr %call, ptr %__begin1, align 8
  %1 = load ptr, ptr %__range1, align 8
  %call2 = call noundef ptr @_ZN6vectorIPN13sat_allocator5chunkELb0EjE3endEv(ptr noundef nonnull align 8 dereferenceable(8) %1)
  store ptr %call2, ptr %__end1, align 8
  br label %for.cond

for.cond:                                         ; preds = %for.inc, %entry
  %2 = load ptr, ptr %__begin1, align 8
  %3 = load ptr, ptr %__end1, align 8
  %cmp = icmp ne ptr %2, %3
  br i1 %cmp, label %for.body, label %for.end

for.body:                                         ; preds = %for.cond
  %4 = load ptr, ptr %__begin1, align 8
  %5 = load ptr, ptr %4, align 8
  store ptr %5, ptr %ch, align 8
  %6 = load ptr, ptr %ch, align 8
  call void @_Z7deallocIN13sat_allocator5chunkEEvPT_(ptr noundef %6)
  br label %for.inc

for.inc:                                          ; preds = %for.body
  %7 = load ptr, ptr %__begin1, align 8
  %incdec.ptr = getelementptr inbounds ptr, ptr %7, i32 1
  store ptr %incdec.ptr, ptr %__begin1, align 8
  br label %for.cond

for.end:                                          ; preds = %for.cond
  %m_chunks3 = getelementptr inbounds %class.sat_allocator, ptr %this1, i32 0, i32 2
  call void @_ZN6vectorIPN13sat_allocator5chunkELb0EjE5resetEv(ptr noundef nonnull align 8 dereferenceable(8) %m_chunks3)
  store i32 0, ptr %i, align 4
  br label %for.cond4

for.cond4:                                        ; preds = %for.inc7, %for.end
  %8 = load i32, ptr %i, align 4
  %cmp5 = icmp ult i32 %8, 65
  br i1 %cmp5, label %for.body6, label %for.end8

for.body6:                                        ; preds = %for.cond4
  %m_free = getelementptr inbounds %class.sat_allocator, ptr %this1, i32 0, i32 4
  %9 = load i32, ptr %i, align 4
  %idxprom = zext i32 %9 to i64
  %arrayidx = getelementptr inbounds [65 x %class.ptr_vector.1], ptr %m_free, i64 0, i64 %idxprom
  call void @_ZN6vectorIPvLb0EjE5resetEv(ptr noundef nonnull align 8 dereferenceable(8) %arrayidx)
  br label %for.inc7

for.inc7:                                         ; preds = %for.body6
  %10 = load i32, ptr %i, align 4
  %inc = add i32 %10, 1
  store i32 %inc, ptr %i, align 4
  br label %for.cond4, !llvm.loop !9

for.end8:                                         ; preds = %for.cond4
  %m_alloc_size = getelementptr inbounds %class.sat_allocator, ptr %this1, i32 0, i32 1
  store i64 0, ptr %m_alloc_size, align 8
  %m_chunk_ptr = getelementptr inbounds %class.sat_allocator, ptr %this1, i32 0, i32 3
  store ptr null, ptr %m_chunk_ptr, align 8
  ret void
}

; Function Attrs: mustprogress uwtable
define hidden void @_ZN3sat16clause_allocator8finalizeEv(ptr noundef nonnull align 8 dereferenceable(568) %this) #5 align 2 {
entry:
  %this.addr = alloca ptr, align 8
  store ptr %this, ptr %this.addr, align 8
  %this1 = load ptr, ptr %this.addr, align 8
  %m_allocator = getelementptr inbounds %"class.sat::clause_allocator", ptr %this1, i32 0, i32 0
  call void @_ZN13sat_allocator5resetEv(ptr noundef nonnull align 8 dereferenceable(552) %m_allocator)
  ret void
}