; Function Attrs: mustprogress uwtable
define hidden void @_ZN3sat16clause_allocator8finalizeEv(ptr nocapture noundef nonnull align 8 dereferenceable(568) %this) local_unnamed_addr #8 align 2 {
entry:
  %m_chunks.i = getelementptr inbounds i8, ptr %this, i64 16
  %0 = load ptr, ptr %m_chunks.i, align 8
  %cmp.i.i.i = icmp eq ptr %0, null
  br i1 %cmp.i.i.i, label %_ZN6vectorIPN13sat_allocator5chunkELb0EjE5resetEv.exit.i, label %_ZN6vectorIPN13sat_allocator5chunkELb0EjE3endEv.exit.i

_ZN6vectorIPN13sat_allocator5chunkELb0EjE3endEv.exit.i: ; preds = %entry
  %arrayidx.i.i.i = getelementptr inbounds i8, ptr %0, i64 -4
  %1 = load i32, ptr %arrayidx.i.i.i, align 4
  %2 = zext i32 %1 to i64
  %add.ptr.i.i = getelementptr inbounds ptr, ptr %0, i64 %2
  %cmp.not11.i = icmp eq i32 %1, 0
  br i1 %cmp.not11.i, label %if.then.i.i, label %for.body.i

for.body.i:                                       ; preds = %_ZN6vectorIPN13sat_allocator5chunkELb0EjE3endEv.exit.i, %_Z7deallocIN13sat_allocator5chunkEEvPT_.exit.i
  %__begin1.012.i = phi ptr [ %incdec.ptr.i, %_Z7deallocIN13sat_allocator5chunkEEvPT_.exit.i ], [ %0, %_ZN6vectorIPN13sat_allocator5chunkELb0EjE3endEv.exit.i ]
  %3 = load ptr, ptr %__begin1.012.i, align 8
  %cmp.i.i = icmp eq ptr %3, null
  br i1 %cmp.i.i, label %_Z7deallocIN13sat_allocator5chunkEEvPT_.exit.i, label %if.end.i.i

if.end.i.i:                                       ; preds = %for.body.i
  tail call void @_ZN6memory10deallocateEPv(ptr noundef nonnull %3)
  br label %_Z7deallocIN13sat_allocator5chunkEEvPT_.exit.i

_Z7deallocIN13sat_allocator5chunkEEvPT_.exit.i:   ; preds = %if.end.i.i, %for.body.i
  %incdec.ptr.i = getelementptr inbounds i8, ptr %__begin1.012.i, i64 8
  %cmp.not.i = icmp eq ptr %incdec.ptr.i, %add.ptr.i.i
  br i1 %cmp.not.i, label %for.end.i, label %for.body.i

for.end.i:                                        ; preds = %_Z7deallocIN13sat_allocator5chunkEEvPT_.exit.i
  %.pre.i = load ptr, ptr %m_chunks.i, align 8
  %tobool.not.i.i = icmp eq ptr %.pre.i, null
  br i1 %tobool.not.i.i, label %_ZN6vectorIPN13sat_allocator5chunkELb0EjE5resetEv.exit.i, label %if.then.i.i

if.then.i.i:                                      ; preds = %for.end.i, %_ZN6vectorIPN13sat_allocator5chunkELb0EjE3endEv.exit.i
  %4 = phi ptr [ %.pre.i, %for.end.i ], [ %0, %_ZN6vectorIPN13sat_allocator5chunkELb0EjE3endEv.exit.i ]
  %arrayidx.i.i = getelementptr inbounds i8, ptr %4, i64 -4
  store i32 0, ptr %arrayidx.i.i, align 4
  br label %_ZN6vectorIPN13sat_allocator5chunkELb0EjE5resetEv.exit.i

_ZN6vectorIPN13sat_allocator5chunkELb0EjE5resetEv.exit.i: ; preds = %if.then.i.i, %for.end.i, %entry
  %m_free.i = getelementptr inbounds i8, ptr %this, i64 32
  br label %for.body6.i

for.body6.i:                                      ; preds = %_ZN6vectorIPvLb0EjE5resetEv.exit.i, %_ZN6vectorIPN13sat_allocator5chunkELb0EjE5resetEv.exit.i
  %indvars.iv.i = phi i64 [ 0, %_ZN6vectorIPN13sat_allocator5chunkELb0EjE5resetEv.exit.i ], [ %indvars.iv.next.i, %_ZN6vectorIPvLb0EjE5resetEv.exit.i ]
  %arrayidx.i = getelementptr inbounds [65 x %class.ptr_vector.1], ptr %m_free.i, i64 0, i64 %indvars.iv.i
  %5 = load ptr, ptr %arrayidx.i, align 8
  %tobool.not.i7.i = icmp eq ptr %5, null
  br i1 %tobool.not.i7.i, label %_ZN6vectorIPvLb0EjE5resetEv.exit.i, label %if.then.i8.i

if.then.i8.i:                                     ; preds = %for.body6.i
  %arrayidx.i9.i = getelementptr inbounds i8, ptr %5, i64 -4
  store i32 0, ptr %arrayidx.i9.i, align 4
  br label %_ZN6vectorIPvLb0EjE5resetEv.exit.i

_ZN6vectorIPvLb0EjE5resetEv.exit.i:               ; preds = %if.then.i8.i, %for.body6.i
  %indvars.iv.next.i = add nuw nsw i64 %indvars.iv.i, 1
  %exitcond.not.i = icmp eq i64 %indvars.iv.next.i, 65
  br i1 %exitcond.not.i, label %_ZN13sat_allocator5resetEv.exit, label %for.body6.i, !llvm.loop !8

_ZN13sat_allocator5resetEv.exit:                  ; preds = %_ZN6vectorIPvLb0EjE5resetEv.exit.i
  %m_alloc_size.i = getelementptr inbounds i8, ptr %this, i64 8
  store i64 0, ptr %m_alloc_size.i, align 8
  %m_chunk_ptr.i = getelementptr inbounds i8, ptr %this, i64 24
  store ptr null, ptr %m_chunk_ptr.i, align 8
  ret void
}